; Function Attrs: nofree norecurse nosync nounwind memory(write, inaccessiblemem: none) uwtable
define i32 @SetOctetStringEx(i32 noundef %0, ptr noundef writeonly captures(address_is_null) %1, i8 noundef zeroext %2) local_unnamed_addr #10 {
  %.not = icmp eq i8 %2, 0
  %.not.i.i7 = icmp eq ptr %1, null
  br i1 %.not, label %7, label %4

4:                                                ; preds = %3
  br i1 %.not.i.i7, label %SetHeader.exit, label %5

5:                                                ; preds = %4
  store i8 36, ptr %1, align 1, !tbaa !3
  %6 = getelementptr inbounds nuw i8, ptr %1, i64 1
  store i8 -128, ptr %6, align 1, !tbaa !3
  br label %SetHeader.exit

7:                                                ; preds = %3
  br i1 %.not.i.i7, label %8, label %.thread.i.i

8:                                                ; preds = %7
  %9 = icmp ult i32 %0, 128
  br i1 %9, label %SetOctetString.exit, label %.preheader.i.i.preheader.i.i

.preheader.i.i.preheader.i.i:                     ; preds = %.thread.i.i, %8
  %.ph.i.i = phi ptr [ null, %8 ], [ %10, %.thread.i.i ]
  br label %.preheader.i.i.i.i

.thread.i.i:                                      ; preds = %7
  store i8 4, ptr %1, align 1, !tbaa !3
  %10 = getelementptr inbounds nuw i8, ptr %1, i64 1
  %11 = icmp ult i32 %0, 128
  br i1 %11, label %12, label %.preheader.i.i.preheader.i.i

12:                                               ; preds = %.thread.i.i
  %13 = trunc nuw nsw i32 %0 to i8
  store i8 %13, ptr %10, align 1, !tbaa !3
  br label %SetOctetString.exit

.preheader.i.i.i.i:                               ; preds = %17, %.preheader.i.i.preheader.i.i
  %.06.i.i.i.i.i = phi i32 [ %18, %17 ], [ 4, %.preheader.i.i.preheader.i.i ]
  %14 = shl i32 %.06.i.i.i.i.i, 3
  %15 = add nsw i32 %14, -8
  %16 = lshr i32 %0, %15
  %.not5.i.i.i.i.i = icmp eq i32 %16, 0
  br i1 %.not5.i.i.i.i.i, label %17, label %BytePrecision.exit.i.i.i.i

17:                                               ; preds = %.preheader.i.i.i.i
  %18 = add nsw i32 %.06.i.i.i.i.i, -1
  %.not.i.i.i.i.i = icmp eq i32 %18, 0
  br i1 %.not.i.i.i.i.i, label %BytePrecision.exit.i.i.i.i, label %.preheader.i.i.i.i, !llvm.loop !6

BytePrecision.exit.i.i.i.i:                       ; preds = %17, %.preheader.i.i.i.i
  %.0.lcssa.i.i.i.i.i = phi i32 [ %.06.i.i.i.i.i, %.preheader.i.i.i.i ], [ 0, %17 ]
  %19 = trunc i32 %.0.lcssa.i.i.i.i.i to i8
  br i1 %.not.i.i7, label %20, label %.thread.i.i.i.i

20:                                               ; preds = %BytePrecision.exit.i.i.i.i
  %.not2628.i.i.i.i = icmp eq i8 %19, 0
  br i1 %.not2628.i.i.i.i, label %SetOctetString.exit, label %.lr.ph.split.us.preheader.i.i.i.i

.thread.i.i.i.i:                                  ; preds = %BytePrecision.exit.i.i.i.i
  %21 = or i8 %19, -128
  store i8 %21, ptr %.ph.i.i, align 1, !tbaa !3
  %.not262836.i.i.i.i = icmp eq i8 %19, 0
  br i1 %.not262836.i.i.i.i, label %SetOctetString.exit, label %.lr.ph.split.i.i.i.i

.lr.ph.split.us.preheader.i.i.i.i:                ; preds = %20
  %22 = add i32 %.0.lcssa.i.i.i.i.i, 255
  %23 = and i32 %22, 255
  %24 = add nuw nsw i32 %23, 2
  br label %SetOctetString.exit

.lr.ph.split.i.i.i.i:                             ; preds = %.thread.i.i.i.i, %.lr.ph.split.i.i.i.i
  %indvars.iv33.i.i.i.i = phi i64 [ %indvars.iv.next34.i.i.i.i, %.lr.ph.split.i.i.i.i ], [ 1, %.thread.i.i.i.i ]
  %indvars.iv.i.i.i.i = phi i32 [ %indvars.iv.next.i.i.i.i, %.lr.ph.split.i.i.i.i ], [ %.0.lcssa.i.i.i.i.i, %.thread.i.i.i.i ]
  %25 = shl nuw nsw i32 %indvars.iv.i.i.i.i, 3
  %26 = add nsw i32 %25, -8
  %27 = lshr i32 %0, %26
  %28 = trunc i32 %27 to i8
  %29 = getelementptr inbounds nuw i8, ptr %.ph.i.i, i64 %indvars.iv33.i.i.i.i
  store i8 %28, ptr %29, align 1, !tbaa !3
  %indvars.iv.next34.i.i.i.i = add nuw nsw i64 %indvars.iv33.i.i.i.i, 1
  %indvars.iv.next.i.i.i.i = add nsw i32 %indvars.iv.i.i.i.i, -1
  %.not26.wide.i.i.i.i = icmp eq i32 %indvars.iv.next.i.i.i.i, 0
  br i1 %.not26.wide.i.i.i.i, label %.loopexit.loopexit31.i.i.i.i, label %.lr.ph.split.i.i.i.i, !llvm.loop !48

.loopexit.loopexit31.i.i.i.i:                     ; preds = %.lr.ph.split.i.i.i.i
  %30 = trunc nuw nsw i64 %indvars.iv.next34.i.i.i.i to i32
  br label %SetOctetString.exit

SetOctetString.exit:                              ; preds = %8, %12, %20, %.thread.i.i.i.i, %.lr.ph.split.us.preheader.i.i.i.i, %.loopexit.loopexit31.i.i.i.i
  %.0.i.i.i = phi i32 [ 1, %12 ], [ 1, %20 ], [ %24, %.lr.ph.split.us.preheader.i.i.i.i ], [ %30, %.loopexit.loopexit31.i.i.i.i ], [ 1, %.thread.i.i.i.i ], [ 1, %8 ]
  %31 = add i32 %.0.i.i.i, 1
  br label %SetHeader.exit

SetHeader.exit:                                   ; preds = %5, %4, %SetOctetString.exit
  %.0 = phi i32 [ %31, %SetOctetString.exit ], [ 2, %4 ], [ 2, %5 ]
  ret i32 %.0
}